(S'FastEthernet4'
p0
(lp1
I23614068
aI6979
aI6965
aI6136
aI7132
aI6951
aI7039
aI6794
aI7682
aI5689
aI7249
aI6038
aI7244
a(lp2
I197500
aI54
aI38
aI60
aI53
aI51
aI53
aI52
aI60
aI40
aI56
aI39
aI55
a(lp3
I43088379
aI11008
aI8762
aI11636
aI9680
aI12428
aI10935
aI10852
aI11398
aI9765
aI10825
aI10080
aI11242
a(lp4
I212676
aI65
aI38
aI58
aI43
aI59
aI52
aI51
aI59
aI39
aI55
aI39
aI56
aI20
tp5
.