(S'FastEthernet4'
p0
(lp1
I19488407
aI2859
aI10793
aI0
aI0
aI0
aI11115
aI0
aI0
aI0
aI0
aI5825
aI0
a(lp2
I165603
aI19
aI66
aI0
aI0
aI0
aI69
aI0
aI0
aI0
aI0
aI36
aI0
a(lp3
I36426376
aI3476
aI11203
aI0
aI0
aI0
aI0
aI11363
aI0
aI0
aI0
aI5951
aI0
a(lp4
I179899
aI19
aI66
aI0
aI0
aI0
aI0
aI69
aI0
aI0
aI0
aI36
aI0
aI10
tp5
.