(S'FastEthernet4'
p0
(lp1
I17045831
aI11631
aI3741
aI3007
aI9736
aI0
aI4566
aI11575
aI3022
aI2651
aI3331
aI10210
aI10199
a(lp2
I144718
aI82
aI26
aI19
aI60
aI0
aI33
aI80
aI19
aI16
aI24
aI65
aI73
a(lp3
I31236148
aI16893
aI4470
aI3804
aI10707
aI0
aI5955
aI15881
aI3892
aI2875
aI4062
aI11434
aI14394
a(lp4
I151490
aI80
aI38
aI19
aI60
aI0
aI33
aI78
aI20
aI4
aI35
aI65
aI72
atp5
.