(S'FastEthernet4'
p0
(lp1
I23712388
aI22043
aI7330
aI33871
aI21622
aI6955
aI6499
aI6979
aI6965
aI6136
aI7132
aI6951
aI7039
a(lp2
I198590
aI259
aI56
aI440
aI235
aI42
aI58
aI54
aI38
aI60
aI53
aI51
aI53
a(lp3
I43239464
aI34831
aI11098
aI49849
aI33726
aI9550
aI12031
aI11008
aI8762
aI11636
aI9680
aI12428
aI10935
a(lp4
I213762
aI272
aI56
aI412
aI259
aI42
aI45
aI65
aI38
aI58
aI43
aI59
aI52
aI50
tp5
.