(S'FastEthernet4'
p0
(lp1
I19524806
aI3549
aI3955
aI7213
aI0
aI0
aI7826
aI0
aI0
aI3449
aI0
aI5240
aI5167
a(lp2
I165843
aI24
aI25
aI0
aI45
aI0
aI49
aI0
aI0
aI0
aI22
aI40
aI35
a(lp3
I36470552
aI4523
aI4032
aI0
aI8106
aI0
aI0
aI8080
aI0
aI0
aI3541
aI7469
aI8425
a(lp4
I180142
aI25
aI25
aI0
aI47
aI0
aI0
aI50
aI0
aI0
aI22
aI39
aI35
aI10
tp5
.